target datalayout = "e-m:e-p270:32:32-p271:32:32-p272:64:64-i64:64-i128:128-f80:128-n8:16:32:64-S128"
target triple = "x86_64-pc-linux-gnu"

%struct.PJconsts = type { ptr, ptr, ptr, ptr, ptr, ptr, ptr, ptr, ptr, ptr, ptr, ptr, i32, ptr, ptr, ptr, ptr, ptr, ptr, ptr, ptr, double, double, double, double, double, double, double, double, double, double, double, double, double, double, double, double, double, double, double, double, double, double, i32, i32, i32, i32, i32, i32, i32, i32, i32, i32, i32, ptr, ptr, ptr, ptr, ptr, ptr, double, double, double, double, double, double, double, double, double, double, double, i32, [7 x double], i32, ptr, ptr, double, double, i32, [4 x i8], %"class.std::shared_ptr", i8, double, i8, %"class.std::__cxx11::basic_string", %"class.std::__cxx11::basic_string", %"class.std::__cxx11::basic_string", i8, %"class.std::vector", i32, %"class.std::vector.3", i32, i8, i8, i8, ptr }
%"class.std::shared_ptr" = type { %"class.std::__shared_ptr" }
%"class.std::__shared_ptr" = type { ptr, %"class.std::__shared_count" }
%"class.std::__shared_count" = type { ptr }
%"class.std::__cxx11::basic_string" = type { %"struct.std::__cxx11::basic_string<char>::_Alloc_hider", i64, %union.anon }
%"struct.std::__cxx11::basic_string<char>::_Alloc_hider" = type { ptr }
%union.anon = type { i64, [8 x i8] }
%"class.std::vector" = type { %"struct.std::_Vector_base" }
%"struct.std::_Vector_base" = type { %"struct.std::_Vector_base<osgeo::proj::operation::GridDescription, std::allocator<osgeo::proj::operation::GridDescription>>::_Vector_impl" }
%"struct.std::_Vector_base<osgeo::proj::operation::GridDescription, std::allocator<osgeo::proj::operation::GridDescription>>::_Vector_impl" = type { %"struct.std::_Vector_base<osgeo::proj::operation::GridDescription, std::allocator<osgeo::proj::operation::GridDescription>>::_Vector_impl_data" }
%"struct.std::_Vector_base<osgeo::proj::operation::GridDescription, std::allocator<osgeo::proj::operation::GridDescription>>::_Vector_impl_data" = type { ptr, ptr, ptr }
%"class.std::vector.3" = type { %"struct.std::_Vector_base.4" }
%"struct.std::_Vector_base.4" = type { %"struct.std::_Vector_base<PJCoordOperation, std::allocator<PJCoordOperation>>::_Vector_impl" }
%"struct.std::_Vector_base<PJCoordOperation, std::allocator<PJCoordOperation>>::_Vector_impl" = type { %"struct.std::_Vector_base<PJCoordOperation, std::allocator<PJCoordOperation>>::_Vector_impl_data" }
%"struct.std::_Vector_base<PJCoordOperation, std::allocator<PJCoordOperation>>::_Vector_impl_data" = type { ptr, ptr, ptr }
%"struct.(anonymous namespace)::pj_ob_tran_data" = type { ptr, double, double, double }
%struct.PJ_XY = type { double, double }
%struct.PJ_LP = type { double, double }

; Function Attrs: mustprogress uwtable
define internal { double, double } @_ZL9t_forward5PJ_LPP8PJconsts(double %0, double %1, ptr noundef %2) #0 {
  %4 = alloca %struct.PJ_XY, align 8
  %5 = alloca %struct.PJ_LP, align 8
  %6 = alloca ptr, align 8
  %7 = alloca ptr, align 8
  %8 = alloca double, align 8
  %9 = alloca double, align 8
  %10 = alloca %struct.PJ_LP, align 8
  %11 = getelementptr inbounds nuw { double, double }, ptr %5, i32 0, i32 0
  store double %0, ptr %11, align 8
  %12 = getelementptr inbounds nuw { double, double }, ptr %5, i32 0, i32 1
  store double %1, ptr %12, align 8
  store ptr %2, ptr %6, align 8, !tbaa !3
  call void @llvm.lifetime.start.p0(i64 8, ptr %7) #10
  %13 = load ptr, ptr %6, align 8, !tbaa !3
  %14 = getelementptr inbounds nuw %struct.PJconsts, ptr %13, i32 0, i32 11
  %15 = load ptr, ptr %14, align 8, !tbaa !43
  store ptr %15, ptr %7, align 8, !tbaa !41
  call void @llvm.lifetime.start.p0(i64 8, ptr %8) #10
  call void @llvm.lifetime.start.p0(i64 8, ptr %9) #10
  %16 = getelementptr inbounds nuw %struct.PJ_LP, ptr %5, i32 0, i32 1
  %17 = load double, ptr %16, align 8, !tbaa !74
  %18 = call double @cos(double noundef %17) #10, !tbaa !49
  store double %18, ptr %8, align 8, !tbaa !62
  %19 = getelementptr inbounds nuw %struct.PJ_LP, ptr %5, i32 0, i32 0
  %20 = load double, ptr %19, align 8, !tbaa !72
  %21 = call double @cos(double noundef %20) #10, !tbaa !49
  store double %21, ptr %9, align 8, !tbaa !62
  %22 = load double, ptr %8, align 8, !tbaa !62
  %23 = getelementptr inbounds nuw %struct.PJ_LP, ptr %5, i32 0, i32 0
  %24 = load double, ptr %23, align 8, !tbaa !72
  %25 = call double @sin(double noundef %24) #10, !tbaa !49
  %26 = fmul double %22, %25
  %27 = getelementptr inbounds nuw %struct.PJ_LP, ptr %5, i32 0, i32 1
  %28 = load double, ptr %27, align 8, !tbaa !74
  %29 = call double @sin(double noundef %28) #10, !tbaa !49
  %30 = call noundef double @_Z6aatan2dd(double noundef %26, double noundef %29)
  %31 = load ptr, ptr %7, align 8, !tbaa !41
  %32 = getelementptr inbounds nuw %"struct.(anonymous namespace)::pj_ob_tran_data", ptr %31, i32 0, i32 1
  %33 = load double, ptr %32, align 8, !tbaa !63
  %34 = fadd double %30, %33
  %35 = call noundef double @_Z6adjlond(double noundef %34)
  %36 = getelementptr inbounds nuw %struct.PJ_LP, ptr %5, i32 0, i32 0
  store double %35, ptr %36, align 8, !tbaa !72
  %37 = load ptr, ptr %6, align 8, !tbaa !3
  %38 = getelementptr inbounds nuw %struct.PJconsts, ptr %37, i32 0, i32 0
  %39 = load ptr, ptr %38, align 8, !tbaa !45
  %40 = load double, ptr %8, align 8, !tbaa !62
  %41 = fneg double %40
  %42 = load double, ptr %9, align 8, !tbaa !62
  %43 = fmul double %41, %42
  %44 = call noundef double @_Z5aasinP6pj_ctxd(ptr noundef %39, double noundef %43)
  %45 = getelementptr inbounds nuw %struct.PJ_LP, ptr %5, i32 0, i32 1
  store double %44, ptr %45, align 8, !tbaa !74
  %46 = load ptr, ptr %7, align 8, !tbaa !41
  %47 = getelementptr inbounds nuw %"struct.(anonymous namespace)::pj_ob_tran_data", ptr %46, i32 0, i32 0
  %48 = load ptr, ptr %47, align 8, !tbaa !60
  %49 = getelementptr inbounds nuw %struct.PJconsts, ptr %48, i32 0, i32 13
  %50 = load ptr, ptr %49, align 8, !tbaa !66
  call void @llvm.memcpy.p0.p0.i64(ptr align 8 %10, ptr align 8 %5, i64 16, i1 false), !tbaa.struct !75
  %51 = load ptr, ptr %7, align 8, !tbaa !41
  %52 = getelementptr inbounds nuw %"struct.(anonymous namespace)::pj_ob_tran_data", ptr %51, i32 0, i32 0
  %53 = load ptr, ptr %52, align 8, !tbaa !60
  %54 = getelementptr inbounds nuw { double, double }, ptr %10, i32 0, i32 0
  %55 = load double, ptr %54, align 8
  %56 = getelementptr inbounds nuw { double, double }, ptr %10, i32 0, i32 1
  %57 = load double, ptr %56, align 8
  %58 = call { double, double } %50(double %55, double %57, ptr noundef %53)
  %59 = getelementptr inbounds nuw { double, double }, ptr %4, i32 0, i32 0
  %60 = extractvalue { double, double } %58, 0
  store double %60, ptr %59, align 8
  %61 = getelementptr inbounds nuw { double, double }, ptr %4, i32 0, i32 1
  %62 = extractvalue { double, double } %58, 1
  store double %62, ptr %61, align 8
  call void @llvm.lifetime.end.p0(i64 8, ptr %9) #10
  call void @llvm.lifetime.end.p0(i64 8, ptr %8) #10
  call void @llvm.lifetime.end.p0(i64 8, ptr %7) #10
  %63 = load { double, double }, ptr %4, align 8
  ret { double, double } %63
}