; Function Attrs: mustprogress uwtable
define internal { double, double } @_ZL9t_forward5PJ_LPP8PJconsts(double %0, double %1, ptr noundef readonly captures(none) %2) #0 {
  %4 = getelementptr inbounds nuw i8, ptr %2, i64 88
  %5 = load ptr, ptr %4, align 8, !tbaa !40
  %6 = tail call double @cos(double noundef %1) #9, !tbaa !55
  %7 = tail call double @cos(double noundef %0) #9, !tbaa !55
  %8 = tail call double @sin(double noundef %0) #9, !tbaa !55
  %9 = fmul double %6, %8
  %10 = tail call double @sin(double noundef %1) #9, !tbaa !55
  %11 = tail call noundef double @_Z6aatan2dd(double noundef %9, double noundef %10)
  %12 = getelementptr inbounds nuw i8, ptr %5, i64 8
  %13 = load double, ptr %12, align 8, !tbaa !56
  %14 = fadd double %11, %13
  %15 = tail call noundef double @_Z6adjlond(double noundef %14)
  %16 = load ptr, ptr %2, align 8, !tbaa !44
  %17 = fneg double %6
  %18 = fmul double %7, %17
  %19 = tail call noundef double @_Z5aasinP6pj_ctxd(ptr noundef %16, double noundef %18)
  %20 = load ptr, ptr %5, align 8, !tbaa !41
  %21 = getelementptr inbounds nuw i8, ptr %20, i64 104
  %22 = load ptr, ptr %21, align 8, !tbaa !59
  %23 = tail call { double, double } %22(double %15, double %19, ptr noundef %20)
  ret { double, double } %23
}